Certificate:
    Data:
        Version: 3 (0x2)
        Serial Number: 1 (0x1)
        Signature Algorithm: md5WithRSAEncryption
        Issuer: C=BE, ST=Liege, L=Verviers, O=InpresMasterCA, OU=OS.JF.unit, CN=FINK Jerome/emailAddress=jeromefink@hotmail.com
        Validity
            Not Before: Jan 19 17:41:25 2016 GMT
            Not After : Jan 18 17:41:25 2017 GMT
        Subject: C=BE, ST=Liege, O=InpresMasterCA, OU=OS.JF.unit, CN=FINK Jerome
        Subject Public Key Info:
            Public Key Algorithm: dsaEncryption
            DSA Public Key:
                pub: 
                    00:a0:50:70:fb:16:20:b3:6d:f8:96:e0:c4:d3:2c:
                    28:e4:13:75:1d:31:69:a4:f0:42:11:f9:d5:61:7d:
                    34:b9:04:6c:02:41:e5:35:3e:b7:56:23:70:4e:6b:
                    47:ff:c3:f9:d7:f7:53:43:f4:4b:ab:23:5c:fd:00:
                    e9:42:b0:ed:7c:a9:4c:13:37:28:ce:1d:05:ec:15:
                    49:e0:af:50:b6:ad:bb:01:8d:99:bf:a1:4a:36:49:
                    9e:8d:27:c8:54:98:14:37:eb:b6:37:98:fa:88:90:
                    5a:3c:1a:56:ba:e6:f7:7d:60:69:80:fd:fb:6f:29:
                    76:4f:02:f2:27:ab:6a:64:58
                P:   
                    00:fd:7f:53:81:1d:75:12:29:52:df:4a:9c:2e:ec:
                    e4:e7:f6:11:b7:52:3c:ef:44:00:c3:1e:3f:80:b6:
                    51:26:69:45:5d:40:22:51:fb:59:3d:8d:58:fa:bf:
                    c5:f5:ba:30:f6:cb:9b:55:6c:d7:81:3b:80:1d:34:
                    6f:f2:66:60:b7:6b:99:50:a5:a4:9f:9f:e8:04:7b:
                    10:22:c2:4f:bb:a9:d7:fe:b7:c6:1b:f8:3b:57:e7:
                    c6:a8:a6:15:0f:04:fb:83:f6:d3:c5:1e:c3:02:35:
                    54:13:5a:16:91:32:f6:75:f3:ae:2b:61:d7:2a:ef:
                    f2:22:03:19:9d:d1:48:01:c7
                Q:   
                    00:97:60:50:8f:15:23:0b:cc:b2:92:b9:82:a2:eb:
                    84:0b:f0:58:1c:f5
                G:   
                    00:f7:e1:a0:85:d6:9b:3d:de:cb:bc:ab:5c:36:b8:
                    57:b9:79:94:af:bb:fa:3a:ea:82:f9:57:4c:0b:3d:
                    07:82:67:51:59:57:8e:ba:d4:59:4f:e6:71:07:10:
                    81:80:b4:49:16:71:23:e8:4c:28:16:13:b7:cf:09:
                    32:8c:c8:a6:e1:3c:16:7a:8b:54:7c:8d:28:e0:a3:
                    ae:1e:2b:b3:a6:75:91:6e:a3:7f:0b:fa:21:35:62:
                    f1:fb:62:7a:01:24:3b:cc:a4:f1:be:a8:51:90:89:
                    a8:83:df:e1:5a:e5:9f:06:92:8b:66:5e:80:7b:55:
                    25:64:01:4c:3b:fe:cf:49:2a
        X509v3 extensions:
            X509v3 Basic Constraints: 
                CA:FALSE
            Netscape Comment: 
                OpenSSL Generated Certificate
            X509v3 Subject Key Identifier: 
                38:AE:3E:5D:B5:2A:7B:72:E6:2D:B5:F7:A0:F0:5A:2F:77:5C:09:FC
            X509v3 Authority Key Identifier: 
                keyid:D7:AA:CC:8E:DA:32:5E:BF:8F:D9:16:D2:9D:A4:9E:D2:80:5F:4E:41
                DirName:/C=BE/ST=Liege/L=Verviers/O=InpresMasterCA/OU=OS.JF.unit/CN=FINK Jerome/emailAddress=jeromefink@hotmail.com
                serial:00

    Signature Algorithm: md5WithRSAEncryption
        47:ed:d7:bd:ca:2c:d8:61:a9:9f:e5:0a:a8:b5:6f:5d:28:67:
        54:f7:cc:5d:57:6a:78:0b:74:78:90:4c:92:88:53:fb:86:bb:
        10:e9:66:b5:df:ce:04:35:d8:12:3b:8e:16:8f:4c:c4:45:3d:
        4e:19:c4:31:55:99:12:9b:60:48:70:fd:ff:09:5e:f1:4f:75:
        21:ac:97:d7:a3:77:73:ba:12:e0:66:16:c5:d8:dc:e1:52:2e:
        10:88:a3:57:08:89:67:f6:ad:11:ef:dc:8c:ec:69:95:29:05:
        f9:7d:3c:54:6e:8d:af:1c:1a:e7:c6:58:54:64:c3:75:bc:aa:
        2e:4b
-----BEGIN CERTIFICATE-----
MIIEtjCCBB+gAwIBAgIBATANBgkqhkiG9w0BAQQFADCBmzELMAkGA1UEBhMCQkUx
DjAMBgNVBAgTBUxpZWdlMREwDwYDVQQHEwhWZXJ2aWVyczEXMBUGA1UEChMOSW5w
cmVzTWFzdGVyQ0ExEzARBgNVBAsTCk9TLkpGLnVuaXQxFDASBgNVBAMTC0ZJTksg
SmVyb21lMSUwIwYJKoZIhvcNAQkBFhZqZXJvbWVmaW5rQGhvdG1haWwuY29tMB4X
DTE2MDExOTE3NDEyNVoXDTE3MDExODE3NDEyNVowYTELMAkGA1UEBhMCQkUxDjAM
BgNVBAgTBUxpZWdlMRcwFQYDVQQKEw5JbnByZXNNYXN0ZXJDQTETMBEGA1UECxMK
T1MuSkYudW5pdDEUMBIGA1UEAxMLRklOSyBKZXJvbWUwggG4MIIBLAYHKoZIzjgE
ATCCAR8CgYEA/X9TgR11EilS30qcLuzk5/YRt1I870QAwx4/gLZRJmlFXUAiUftZ
PY1Y+r/F9bow9subVWzXgTuAHTRv8mZgt2uZUKWkn5/oBHsQIsJPu6nX/rfGG/g7
V+fGqKYVDwT7g/bTxR7DAjVUE1oWkTL2dfOuK2HXKu/yIgMZndFIAccCFQCXYFCP
FSMLzLKSuYKi64QL8Fgc9QKBgQD34aCF1ps93su8q1w2uFe5eZSvu/o66oL5V0wL
PQeCZ1FZV4661FlP5nEHEIGAtEkWcSPoTCgWE7fPCTKMyKbhPBZ6i1R8jSjgo64e
K7OmdZFuo38L+iE1YvH7YnoBJDvMpPG+qFGQiaiD3+Fa5Z8GkotmXoB7VSVkAUw7
/s9JKgOBhQACgYEAoFBw+xYgs234luDE0ywo5BN1HTFppPBCEfnVYX00uQRsAkHl
NT63ViNwTmtH/8P51/dTQ/RLqyNc/QDpQrDtfKlMEzcozh0F7BVJ4K9Qtq27AY2Z
v6FKNkmejSfIVJgUN+u2N5j6iJBaPBpWuub3fWBpgP37byl2TwLyJ6tqZFijggEn
MIIBIzAJBgNVHRMEAjAAMCwGCWCGSAGG+EIBDQQfFh1PcGVuU1NMIEdlbmVyYXRl
ZCBDZXJ0aWZpY2F0ZTAdBgNVHQ4EFgQUOK4+XbUqe3LmLbX3oPBaL3dcCfwwgcgG
A1UdIwSBwDCBvYAU16rMjtoyXr+P2RbSnaSe0oBfTkGhgaGkgZ4wgZsxCzAJBgNV
BAYTAkJFMQ4wDAYDVQQIEwVMaWVnZTERMA8GA1UEBxMIVmVydmllcnMxFzAVBgNV
BAoTDklucHJlc01hc3RlckNBMRMwEQYDVQQLEwpPUy5KRi51bml0MRQwEgYDVQQD
EwtGSU5LIEplcm9tZTElMCMGCSqGSIb3DQEJARYWamVyb21lZmlua0Bob3RtYWls
LmNvbYIBADANBgkqhkiG9w0BAQQFAAOBgQBH7de9yizYYamf5QqotW9dKGdU98xd
V2p4C3R4kEySiFP7hrsQ6Wa1384ENdgSO44Wj0zERT1OGcQxVZkSm2BIcP3/CV7x
T3UhrJfXo3dzuhLgZhbF2NzhUi4QiKNXCIln9q0R79yM7GmVKQX5fTxUbo2vHBrn
xlhUZMN1vKouSw==
-----END CERTIFICATE-----
