Certificate:
    Data:
        Version: 3 (0x2)
        Serial Number: 2 (0x2)
        Signature Algorithm: md5WithRSAEncryption
        Issuer: C=BE, ST=Liege, L=Verviers, O=InpresMasterCA, OU=OS.JF.unit, CN=FINK Jerome/emailAddress=jeromefink@hotmail.com
        Validity
            Not Before: Jan 19 17:52:54 2016 GMT
            Not After : Jan 18 17:52:54 2017 GMT
        Subject: C=BE, ST=Liege, O=InpresMasterCA, OU=OS.JF.unit, CN=SEEL Oceane
        Subject Public Key Info:
            Public Key Algorithm: dsaEncryption
            DSA Public Key:
                pub: 
                    00:a0:cc:d1:c5:0e:81:4f:35:96:31:6b:60:5d:5a:
                    29:f8:f4:1b:06:22:95:22:0e:97:22:48:b1:d1:c4:
                    58:bd:e8:4c:c4:97:1e:13:d3:87:23:90:91:2a:6f:
                    87:bf:9c:70:61:c0:29:e2:e4:37:f2:be:51:57:b5:
                    02:97:0b:68:7c:e2:8e:b7:13:d9:fc:a9:81:b6:b3:
                    65:cd:a5:e8:46:e6:67:59:b8:4a:dc:84:d9:dc:0f:
                    5f:7b:29:f9:69:df:50:fd:b0:35:e3:7c:78:5a:00:
                    a5:62:aa:5f:da:f3:2d:76:31:79:9d:18:cc:ad:a8:
                    5d:81:4b:10:a3:67:3a:e4:8a
                P:   
                    00:fd:7f:53:81:1d:75:12:29:52:df:4a:9c:2e:ec:
                    e4:e7:f6:11:b7:52:3c:ef:44:00:c3:1e:3f:80:b6:
                    51:26:69:45:5d:40:22:51:fb:59:3d:8d:58:fa:bf:
                    c5:f5:ba:30:f6:cb:9b:55:6c:d7:81:3b:80:1d:34:
                    6f:f2:66:60:b7:6b:99:50:a5:a4:9f:9f:e8:04:7b:
                    10:22:c2:4f:bb:a9:d7:fe:b7:c6:1b:f8:3b:57:e7:
                    c6:a8:a6:15:0f:04:fb:83:f6:d3:c5:1e:c3:02:35:
                    54:13:5a:16:91:32:f6:75:f3:ae:2b:61:d7:2a:ef:
                    f2:22:03:19:9d:d1:48:01:c7
                Q:   
                    00:97:60:50:8f:15:23:0b:cc:b2:92:b9:82:a2:eb:
                    84:0b:f0:58:1c:f5
                G:   
                    00:f7:e1:a0:85:d6:9b:3d:de:cb:bc:ab:5c:36:b8:
                    57:b9:79:94:af:bb:fa:3a:ea:82:f9:57:4c:0b:3d:
                    07:82:67:51:59:57:8e:ba:d4:59:4f:e6:71:07:10:
                    81:80:b4:49:16:71:23:e8:4c:28:16:13:b7:cf:09:
                    32:8c:c8:a6:e1:3c:16:7a:8b:54:7c:8d:28:e0:a3:
                    ae:1e:2b:b3:a6:75:91:6e:a3:7f:0b:fa:21:35:62:
                    f1:fb:62:7a:01:24:3b:cc:a4:f1:be:a8:51:90:89:
                    a8:83:df:e1:5a:e5:9f:06:92:8b:66:5e:80:7b:55:
                    25:64:01:4c:3b:fe:cf:49:2a
        X509v3 extensions:
            X509v3 Basic Constraints: 
                CA:FALSE
            Netscape Comment: 
                OpenSSL Generated Certificate
            X509v3 Subject Key Identifier: 
                A5:90:87:FE:66:59:1C:8F:EE:44:10:D0:5B:50:38:99:05:9F:75:D5
            X509v3 Authority Key Identifier: 
                keyid:D7:AA:CC:8E:DA:32:5E:BF:8F:D9:16:D2:9D:A4:9E:D2:80:5F:4E:41
                DirName:/C=BE/ST=Liege/L=Verviers/O=InpresMasterCA/OU=OS.JF.unit/CN=FINK Jerome/emailAddress=jeromefink@hotmail.com
                serial:00

    Signature Algorithm: md5WithRSAEncryption
        56:eb:bd:88:77:36:fc:49:2a:37:97:40:c9:c1:f5:0b:19:67:
        df:2a:8a:1c:1f:5b:d7:00:9c:6a:fa:d7:79:3f:1f:3f:aa:7d:
        45:4f:be:f5:83:3e:f7:da:87:3d:c0:18:5c:86:56:34:14:30:
        3a:9c:a6:98:f8:5b:a8:32:97:2a:1b:cd:7b:6b:26:25:e7:90:
        ce:cb:c5:d5:c8:77:c5:6c:2f:37:4a:29:b9:84:73:f7:ae:27:
        d8:0d:8f:31:e7:41:ea:0e:d5:fa:8d:d6:7d:e7:69:a2:70:ae:
        ff:e1:a2:4d:5a:76:60:eb:29:69:9c:20:e6:0d:50:55:2f:dd:
        a8:62
-----BEGIN CERTIFICATE-----
MIIEtjCCBB+gAwIBAgIBAjANBgkqhkiG9w0BAQQFADCBmzELMAkGA1UEBhMCQkUx
DjAMBgNVBAgTBUxpZWdlMREwDwYDVQQHEwhWZXJ2aWVyczEXMBUGA1UEChMOSW5w
cmVzTWFzdGVyQ0ExEzARBgNVBAsTCk9TLkpGLnVuaXQxFDASBgNVBAMTC0ZJTksg
SmVyb21lMSUwIwYJKoZIhvcNAQkBFhZqZXJvbWVmaW5rQGhvdG1haWwuY29tMB4X
DTE2MDExOTE3NTI1NFoXDTE3MDExODE3NTI1NFowYTELMAkGA1UEBhMCQkUxDjAM
BgNVBAgTBUxpZWdlMRcwFQYDVQQKEw5JbnByZXNNYXN0ZXJDQTETMBEGA1UECxMK
T1MuSkYudW5pdDEUMBIGA1UEAxMLU0VFTCBPY2VhbmUwggG4MIIBLAYHKoZIzjgE
ATCCAR8CgYEA/X9TgR11EilS30qcLuzk5/YRt1I870QAwx4/gLZRJmlFXUAiUftZ
PY1Y+r/F9bow9subVWzXgTuAHTRv8mZgt2uZUKWkn5/oBHsQIsJPu6nX/rfGG/g7
V+fGqKYVDwT7g/bTxR7DAjVUE1oWkTL2dfOuK2HXKu/yIgMZndFIAccCFQCXYFCP
FSMLzLKSuYKi64QL8Fgc9QKBgQD34aCF1ps93su8q1w2uFe5eZSvu/o66oL5V0wL
PQeCZ1FZV4661FlP5nEHEIGAtEkWcSPoTCgWE7fPCTKMyKbhPBZ6i1R8jSjgo64e
K7OmdZFuo38L+iE1YvH7YnoBJDvMpPG+qFGQiaiD3+Fa5Z8GkotmXoB7VSVkAUw7
/s9JKgOBhQACgYEAoMzRxQ6BTzWWMWtgXVop+PQbBiKVIg6XIkix0cRYvehMxJce
E9OHI5CRKm+Hv5xwYcAp4uQ38r5RV7UClwtofOKOtxPZ/KmBtrNlzaXoRuZnWbhK
3ITZ3A9feyn5ad9Q/bA143x4WgClYqpf2vMtdjF5nRjMrahdgUsQo2c65IqjggEn
MIIBIzAJBgNVHRMEAjAAMCwGCWCGSAGG+EIBDQQfFh1PcGVuU1NMIEdlbmVyYXRl
ZCBDZXJ0aWZpY2F0ZTAdBgNVHQ4EFgQUpZCH/mZZHI/uRBDQW1A4mQWfddUwgcgG
A1UdIwSBwDCBvYAU16rMjtoyXr+P2RbSnaSe0oBfTkGhgaGkgZ4wgZsxCzAJBgNV
BAYTAkJFMQ4wDAYDVQQIEwVMaWVnZTERMA8GA1UEBxMIVmVydmllcnMxFzAVBgNV
BAoTDklucHJlc01hc3RlckNBMRMwEQYDVQQLEwpPUy5KRi51bml0MRQwEgYDVQQD
EwtGSU5LIEplcm9tZTElMCMGCSqGSIb3DQEJARYWamVyb21lZmlua0Bob3RtYWls
LmNvbYIBADANBgkqhkiG9w0BAQQFAAOBgQBW672Idzb8SSo3l0DJwfULGWffKooc
H1vXAJxq+td5Px8/qn1FT771gz732oc9wBhchlY0FDA6nKaY+FuoMpcqG817ayYl
55DOy8XVyHfFbC83Sim5hHP3rifYDY8x50HqDtX6jdZ952micK7/4aJNWnZg6ylp
nCDmDVBVL92oYg==
-----END CERTIFICATE-----
