Certificate:
    Data:
        Version: 3 (0x2)
        Serial Number: 1 (0x1)
        Signature Algorithm: md5WithRSAEncryption
        Issuer: C=BE, ST=Liege, L=Verviers, O=InpresMasterPFM, OU=OSeelJFinkUnit, CN=Fink Jerome/emailAddress=jeromefink@hotmail.com
        Validity
            Not Before: Jan 21 13:43:29 2016 GMT
            Not After : Jan 20 13:43:29 2017 GMT
        Subject: C=BE, ST=Liege, O=InpresMasterPFM, OU=FinkUnit, CN=Fink Jerome
        Subject Public Key Info:
            Public Key Algorithm: dsaEncryption
            DSA Public Key:
                pub: 
                    32:20:2e:c6:75:b4:24:56:69:98:f1:5c:9e:41:49:
                    51:d1:5d:29:31:4c:05:55:fe:da:28:e1:0d:26:2b:
                    62:ea:65:05:7c:ee:85:07:26:c3:d7:06:ff:4b:cb:
                    5b:92:02:3f:30:02:46:e1:ed:e4:7b:b3:56:db:54:
                    15:bb:d3:3c:55:98:ff:9f:70:85:a9:bb:c6:73:76:
                    76:76:f9:d5:8f:02:e9:20:46:fd:a2:5c:5e:b5:ba:
                    c0:3a:b0:78:8d:24:b6:0d:17:61:9d:fd:4c:bc:1b:
                    a9:51:c8:cf:a6:41:88:9a:1c:79:92:11:e0:25:62:
                    4e:1b:03:7b:95:d0:ee:c8
                P:   
                    00:fd:7f:53:81:1d:75:12:29:52:df:4a:9c:2e:ec:
                    e4:e7:f6:11:b7:52:3c:ef:44:00:c3:1e:3f:80:b6:
                    51:26:69:45:5d:40:22:51:fb:59:3d:8d:58:fa:bf:
                    c5:f5:ba:30:f6:cb:9b:55:6c:d7:81:3b:80:1d:34:
                    6f:f2:66:60:b7:6b:99:50:a5:a4:9f:9f:e8:04:7b:
                    10:22:c2:4f:bb:a9:d7:fe:b7:c6:1b:f8:3b:57:e7:
                    c6:a8:a6:15:0f:04:fb:83:f6:d3:c5:1e:c3:02:35:
                    54:13:5a:16:91:32:f6:75:f3:ae:2b:61:d7:2a:ef:
                    f2:22:03:19:9d:d1:48:01:c7
                Q:   
                    00:97:60:50:8f:15:23:0b:cc:b2:92:b9:82:a2:eb:
                    84:0b:f0:58:1c:f5
                G:   
                    00:f7:e1:a0:85:d6:9b:3d:de:cb:bc:ab:5c:36:b8:
                    57:b9:79:94:af:bb:fa:3a:ea:82:f9:57:4c:0b:3d:
                    07:82:67:51:59:57:8e:ba:d4:59:4f:e6:71:07:10:
                    81:80:b4:49:16:71:23:e8:4c:28:16:13:b7:cf:09:
                    32:8c:c8:a6:e1:3c:16:7a:8b:54:7c:8d:28:e0:a3:
                    ae:1e:2b:b3:a6:75:91:6e:a3:7f:0b:fa:21:35:62:
                    f1:fb:62:7a:01:24:3b:cc:a4:f1:be:a8:51:90:89:
                    a8:83:df:e1:5a:e5:9f:06:92:8b:66:5e:80:7b:55:
                    25:64:01:4c:3b:fe:cf:49:2a
        X509v3 extensions:
            X509v3 Basic Constraints: 
                CA:FALSE
            Netscape Comment: 
                OpenSSL Generated Certificate
            X509v3 Subject Key Identifier: 
                68:15:FB:1E:15:FD:94:38:1F:5C:A5:3A:E5:2F:34:DD:0E:3B:08:1E
            X509v3 Authority Key Identifier: 
                keyid:F5:A7:26:5B:1E:26:E6:7E:BC:B2:59:5E:A5:62:5F:25:8F:34:9E:F4
                DirName:/C=BE/ST=Liege/L=Verviers/O=InpresMasterPFM/OU=OSeelJFinkUnit/CN=Fink Jerome/emailAddress=jeromefink@hotmail.com
                serial:00

    Signature Algorithm: md5WithRSAEncryption
        3c:83:82:6a:b2:e7:d9:d6:71:2c:15:0f:09:8b:cf:10:80:3d:
        c2:c0:13:98:ee:99:dd:fa:4b:c3:17:40:50:bf:ef:e3:94:38:
        17:f9:da:bc:d6:79:5d:77:e3:66:d3:85:58:98:42:ae:b7:35:
        e8:43:6b:fd:d8:af:46:db:3e:1c:39:98:7a:2c:45:e5:03:82:
        f8:99:00:ee:94:a9:60:b6:35:76:f7:f0:18:a3:0b:7d:c7:ce:
        95:46:db:2b:9b:4f:8a:26:97:80:a8:27:59:bd:ee:8d:9c:8a:
        98:87:29:b7:8d:31:d9:94:15:32:e0:6b:ba:be:8e:64:6a:ca:
        1c:a9
-----BEGIN CERTIFICATE-----
MIIEvjCCBCegAwIBAgIBATANBgkqhkiG9w0BAQQFADCBoDELMAkGA1UEBhMCQkUx
DjAMBgNVBAgTBUxpZWdlMREwDwYDVQQHEwhWZXJ2aWVyczEYMBYGA1UEChMPSW5w
cmVzTWFzdGVyUEZNMRcwFQYDVQQLEw5PU2VlbEpGaW5rVW5pdDEUMBIGA1UEAxML
RmluayBKZXJvbWUxJTAjBgkqhkiG9w0BCQEWFmplcm9tZWZpbmtAaG90bWFpbC5j
b20wHhcNMTYwMTIxMTM0MzI5WhcNMTcwMTIwMTM0MzI5WjBgMQswCQYDVQQGEwJC
RTEOMAwGA1UECBMFTGllZ2UxGDAWBgNVBAoTD0lucHJlc01hc3RlclBGTTERMA8G
A1UECxMIRmlua1VuaXQxFDASBgNVBAMTC0ZpbmsgSmVyb21lMIIBtzCCASwGByqG
SM44BAEwggEfAoGBAP1/U4EddRIpUt9KnC7s5Of2EbdSPO9EAMMeP4C2USZpRV1A
IlH7WT2NWPq/xfW6MPbLm1Vs14E7gB00b/JmYLdrmVClpJ+f6AR7ECLCT7up1/63
xhv4O1fnxqimFQ8E+4P208UewwI1VBNaFpEy9nXzrith1yrv8iIDGZ3RSAHHAhUA
l2BQjxUjC8yykrmCouuEC/BYHPUCgYEA9+GghdabPd7LvKtcNrhXuXmUr7v6OuqC
+VdMCz0HgmdRWVeOutRZT+ZxBxCBgLRJFnEj6EwoFhO3zwkyjMim4TwWeotUfI0o
4KOuHiuzpnWRbqN/C/ohNWLx+2J6ASQ7zKTxvqhRkImog9/hWuWfBpKLZl6Ae1Ul
ZAFMO/7PSSoDgYQAAoGAMiAuxnW0JFZpmPFcnkFJUdFdKTFMBVX+2ijhDSYrYupl
BXzuhQcmw9cG/0vLW5ICPzACRuHt5HuzVttUFbvTPFWY/59wham7xnN2dnb51Y8C
6SBG/aJcXrW6wDqweI0ktg0XYZ39TLwbqVHIz6ZBiJoceZIR4CViThsDe5XQ7sij
ggEsMIIBKDAJBgNVHRMEAjAAMCwGCWCGSAGG+EIBDQQfFh1PcGVuU1NMIEdlbmVy
YXRlZCBDZXJ0aWZpY2F0ZTAdBgNVHQ4EFgQUaBX7HhX9lDgfXKU65S803Q47CB4w
gc0GA1UdIwSBxTCBwoAU9acmWx4m5n68sllepWJfJY80nvShgaakgaMwgaAxCzAJ
BgNVBAYTAkJFMQ4wDAYDVQQIEwVMaWVnZTERMA8GA1UEBxMIVmVydmllcnMxGDAW
BgNVBAoTD0lucHJlc01hc3RlclBGTTEXMBUGA1UECxMOT1NlZWxKRmlua1VuaXQx
FDASBgNVBAMTC0ZpbmsgSmVyb21lMSUwIwYJKoZIhvcNAQkBFhZqZXJvbWVmaW5r
QGhvdG1haWwuY29tggEAMA0GCSqGSIb3DQEBBAUAA4GBADyDgmqy59nWcSwVDwmL
zxCAPcLAE5jumd36S8MXQFC/7+OUOBf52rzWeV1342bThViYQq63NehDa/3Yr0bb
Phw5mHosReUDgviZAO6UqWC2NXb38BijC33HzpVG2yubT4oml4CoJ1m97o2cipiH
KbeNMdmUFTLga7q+jmRqyhyp
-----END CERTIFICATE-----
