Certificate:
    Data:
        Version: 3 (0x2)
        Serial Number: 2 (0x2)
        Signature Algorithm: md5WithRSAEncryption
        Issuer: C=BE, ST=Liege, L=Verviers, O=InpresMasterPFM, OU=OSeelJFinkUnit, CN=Fink Jerome/emailAddress=jeromefink@hotmail.com
        Validity
            Not Before: Jan 21 14:10:47 2016 GMT
            Not After : Jan 20 14:10:47 2017 GMT
        Subject: C=BE, ST=Liege, O=InpresMasterPFM, OU=SeelUnit, CN=Fink Jerome
        Subject Public Key Info:
            Public Key Algorithm: dsaEncryption
            DSA Public Key:
                pub: 
                    00:84:33:56:f8:2c:ec:10:3f:a4:f8:40:00:67:eb:
                    18:53:38:2d:cd:87:5b:4e:fc:d7:9e:53:39:4a:a9:
                    fc:5d:8b:da:c2:ac:46:d3:7a:c5:a5:ce:10:a6:fa:
                    53:33:07:9f:66:06:c0:87:b4:00:fb:66:17:a5:d2:
                    6b:ac:f6:0c:3f:5d:35:4a:7b:bb:b5:44:86:c1:37:
                    f5:c8:23:a3:f5:f2:ee:28:a2:7c:cf:a7:2b:26:59:
                    d8:c0:a8:ed:43:44:8e:4b:80:b2:3d:50:e6:7f:ed:
                    69:c3:69:c8:70:85:99:5f:0a:3e:34:f2:f1:ad:bf:
                    c9:4a:b5:4a:e2:c5:4a:52:de
                P:   
                    00:fd:7f:53:81:1d:75:12:29:52:df:4a:9c:2e:ec:
                    e4:e7:f6:11:b7:52:3c:ef:44:00:c3:1e:3f:80:b6:
                    51:26:69:45:5d:40:22:51:fb:59:3d:8d:58:fa:bf:
                    c5:f5:ba:30:f6:cb:9b:55:6c:d7:81:3b:80:1d:34:
                    6f:f2:66:60:b7:6b:99:50:a5:a4:9f:9f:e8:04:7b:
                    10:22:c2:4f:bb:a9:d7:fe:b7:c6:1b:f8:3b:57:e7:
                    c6:a8:a6:15:0f:04:fb:83:f6:d3:c5:1e:c3:02:35:
                    54:13:5a:16:91:32:f6:75:f3:ae:2b:61:d7:2a:ef:
                    f2:22:03:19:9d:d1:48:01:c7
                Q:   
                    00:97:60:50:8f:15:23:0b:cc:b2:92:b9:82:a2:eb:
                    84:0b:f0:58:1c:f5
                G:   
                    00:f7:e1:a0:85:d6:9b:3d:de:cb:bc:ab:5c:36:b8:
                    57:b9:79:94:af:bb:fa:3a:ea:82:f9:57:4c:0b:3d:
                    07:82:67:51:59:57:8e:ba:d4:59:4f:e6:71:07:10:
                    81:80:b4:49:16:71:23:e8:4c:28:16:13:b7:cf:09:
                    32:8c:c8:a6:e1:3c:16:7a:8b:54:7c:8d:28:e0:a3:
                    ae:1e:2b:b3:a6:75:91:6e:a3:7f:0b:fa:21:35:62:
                    f1:fb:62:7a:01:24:3b:cc:a4:f1:be:a8:51:90:89:
                    a8:83:df:e1:5a:e5:9f:06:92:8b:66:5e:80:7b:55:
                    25:64:01:4c:3b:fe:cf:49:2a
        X509v3 extensions:
            X509v3 Basic Constraints: 
                CA:FALSE
            Netscape Comment: 
                OpenSSL Generated Certificate
            X509v3 Subject Key Identifier: 
                F8:C1:1E:56:DF:B5:AE:88:D5:BC:49:0E:BC:B2:90:2A:34:B3:A7:5B
            X509v3 Authority Key Identifier: 
                keyid:F5:A7:26:5B:1E:26:E6:7E:BC:B2:59:5E:A5:62:5F:25:8F:34:9E:F4
                DirName:/C=BE/ST=Liege/L=Verviers/O=InpresMasterPFM/OU=OSeelJFinkUnit/CN=Fink Jerome/emailAddress=jeromefink@hotmail.com
                serial:00

    Signature Algorithm: md5WithRSAEncryption
        59:9e:94:74:11:74:64:cc:ea:d0:f0:f6:95:0c:96:cd:9d:78:
        c8:fa:66:ab:b8:07:62:da:63:ce:cd:d3:d8:8c:87:dd:1e:fd:
        80:a0:cd:d7:c3:70:2f:83:0d:4a:bc:ab:c3:b7:be:1b:89:4b:
        4a:72:e4:f9:59:47:dd:73:f5:aa:32:42:09:65:1c:0c:15:33:
        f9:4d:e4:72:94:ae:6f:9f:47:66:fa:b7:b7:1b:f0:e2:0e:ec:
        ae:84:27:a7:70:91:81:9e:64:99:ad:b0:c2:4b:3f:e3:f0:95:
        0a:a7:38:3d:87:d4:82:78:60:2f:2a:e4:40:22:04:79:d1:4a:
        17:ee
-----BEGIN CERTIFICATE-----
MIIEvzCCBCigAwIBAgIBAjANBgkqhkiG9w0BAQQFADCBoDELMAkGA1UEBhMCQkUx
DjAMBgNVBAgTBUxpZWdlMREwDwYDVQQHEwhWZXJ2aWVyczEYMBYGA1UEChMPSW5w
cmVzTWFzdGVyUEZNMRcwFQYDVQQLEw5PU2VlbEpGaW5rVW5pdDEUMBIGA1UEAxML
RmluayBKZXJvbWUxJTAjBgkqhkiG9w0BCQEWFmplcm9tZWZpbmtAaG90bWFpbC5j
b20wHhcNMTYwMTIxMTQxMDQ3WhcNMTcwMTIwMTQxMDQ3WjBgMQswCQYDVQQGEwJC
RTEOMAwGA1UECBMFTGllZ2UxGDAWBgNVBAoTD0lucHJlc01hc3RlclBGTTERMA8G
A1UECxMIU2VlbFVuaXQxFDASBgNVBAMTC0ZpbmsgSmVyb21lMIIBuDCCASwGByqG
SM44BAEwggEfAoGBAP1/U4EddRIpUt9KnC7s5Of2EbdSPO9EAMMeP4C2USZpRV1A
IlH7WT2NWPq/xfW6MPbLm1Vs14E7gB00b/JmYLdrmVClpJ+f6AR7ECLCT7up1/63
xhv4O1fnxqimFQ8E+4P208UewwI1VBNaFpEy9nXzrith1yrv8iIDGZ3RSAHHAhUA
l2BQjxUjC8yykrmCouuEC/BYHPUCgYEA9+GghdabPd7LvKtcNrhXuXmUr7v6OuqC
+VdMCz0HgmdRWVeOutRZT+ZxBxCBgLRJFnEj6EwoFhO3zwkyjMim4TwWeotUfI0o
4KOuHiuzpnWRbqN/C/ohNWLx+2J6ASQ7zKTxvqhRkImog9/hWuWfBpKLZl6Ae1Ul
ZAFMO/7PSSoDgYUAAoGBAIQzVvgs7BA/pPhAAGfrGFM4Lc2HW078155TOUqp/F2L
2sKsRtN6xaXOEKb6UzMHn2YGwIe0APtmF6XSa6z2DD9dNUp7u7VEhsE39cgjo/Xy
7iiifM+nKyZZ2MCo7UNEjkuAsj1Q5n/tacNpyHCFmV8KPjTy8a2/yUq1SuLFSlLe
o4IBLDCCASgwCQYDVR0TBAIwADAsBglghkgBhvhCAQ0EHxYdT3BlblNTTCBHZW5l
cmF0ZWQgQ2VydGlmaWNhdGUwHQYDVR0OBBYEFPjBHlbfta6I1bxJDryykCo0s6db
MIHNBgNVHSMEgcUwgcKAFPWnJlseJuZ+vLJZXqViXyWPNJ70oYGmpIGjMIGgMQsw
CQYDVQQGEwJCRTEOMAwGA1UECBMFTGllZ2UxETAPBgNVBAcTCFZlcnZpZXJzMRgw
FgYDVQQKEw9JbnByZXNNYXN0ZXJQRk0xFzAVBgNVBAsTDk9TZWVsSkZpbmtVbml0
MRQwEgYDVQQDEwtGaW5rIEplcm9tZTElMCMGCSqGSIb3DQEJARYWamVyb21lZmlu
a0Bob3RtYWlsLmNvbYIBADANBgkqhkiG9w0BAQQFAAOBgQBZnpR0EXRkzOrQ8PaV
DJbNnXjI+maruAdi2mPOzdPYjIfdHv2AoM3Xw3Avgw1KvKvDt74biUtKcuT5WUfd
c/WqMkIJZRwMFTP5TeRylK5vn0dm+re3G/DiDuyuhCencJGBnmSZrbDCSz/j8JUK
pzg9h9SCeGAvKuRAIgR50UoX7g==
-----END CERTIFICATE-----
